  0x0 | 00 61 73 6d | version 1 (Module)
      | 01 00 00 00
  0x8 | 00 48       | custom section
  0xa | 09 70 72 6f | name: "producers"
      | 64 75 63 65
      | 72 73      
 0x14 | 03          | 3 count
 0x15 | 08 6c 61 6e | field: language
      | 67 75 61 67
      | 65         
 0x1e | 02          | 2 count
 0x1f | 03 66 6f 6f | ProducersFieldValue { name: "foo", version: "bar" }
      | 03 62 61 72
 0x27 | 03 66 6f 6f | ProducersFieldValue { name: "foo", version: "bar" }
      | 03 62 61 72
 0x2f | 03 73 64 6b | field: sdk
 0x33 | 01          | 1 count
 0x34 | 03 66 6f 6f | ProducersFieldValue { name: "foo", version: "bar" }
      | 03 62 61 72
 0x3c | 0c 70 72 6f | field: processed-by
      | 63 65 73 73
      | 65 64 2d 62
      | 79         
 0x49 | 01          | 1 count
 0x4a | 03 66 6f 6f | ProducersFieldValue { name: "foo", version: "bar" }
      | 03 62 61 72
