  0x0 | 00 61 73 6d | version 1 (Module)
      | 01 00 00 00
  0x8 | 00 2a       | custom section
  0xa | 08 64 79 6c | name: "dylink.0"
      | 69 6e 6b 2e
      | 30         
 0x13 | 02 05 02 01 | Needed(["a", "b"])
      | 61 01 62   
 0x1a | 01 04 01 01 | MemInfo(MemInfo { memory_size: 1, memory_alignment: 1, table_size: 1, table_alignment: 1 })
      | 01 01      
 0x20 | 03 04 01 01 | ExportInfo([ExportInfo { name: "a", flags: SymbolFlags(0x0) }])
      | 61 00      
 0x26 | 04 06 01 01 | ImportInfo([ImportInfo { module: "a", field: "a", flags: SymbolFlags(0x0) }])
      | 61 01 61 00
 0x2e | 03 04 01 01 | ExportInfo([ExportInfo { name: "a", flags: SymbolFlags(BINDING_WEAK | BINDING_LOCAL | UNDEFINED) }])
      | 61 13      
