   0x0 | 00 61 73 6d | version 12 (Component)
       | 0c 00 01 00
   0x8 | 07 30       | component type section
   0xa | 01          | 1 count
   0xb | 42 09 00 50 | [type 0] Instance([CoreType(Module([])), Export { name: "a", url: "", ty: Module(0) }, Type(Func(ComponentFuncType { params: [], results: Named([]) })), Export { name: "b", url: "", ty: Func(0) }, Export { name: "c", url: "", ty: Value(Primitive(String)) }, Type(Instance([])), Export { name: "d", url: "", ty: Instance(1) }, Type(Component([])), Export { name: "e", url: "", ty: Component(2) }])
       | 00 04 01 61
       | 00 00 11 00
       | 01 40 00 01
       | 00 04 01 62
       | 00 01 00 04
       | 01 63 00 02
       | 73 01 42 00
       | 04 01 64 00
       | 05 01 01 41
       | 00 04 01 65
       | 00 04 02   
  0x3a | 0a 06       | component import section
  0x3c | 01          | 1 count
  0x3d | 01 61 00 05 | [instance 0] ComponentImport { name: "a", url: "", ty: Instance(0) }
       | 00         
  0x42 | 04 59       | [component 0] inline size
    0x44 | 00 61 73 6d | version 12 (Component)
         | 0c 00 01 00
    0x4c | 03 03       | core type section
    0x4e | 01          | 1 count
    0x4f | 50 00       | [core type 0] Module([])
    0x51 | 0a 07       | component import section
    0x53 | 01          | 1 count
    0x54 | 01 61 00 00 | [module 0] ComponentImport { name: "a", url: "", ty: Module(0) }
         | 11 00      
    0x5a | 07 05       | component type section
    0x5c | 01          | 1 count
    0x5d | 40 00 01 00 | [type 0] Func(ComponentFuncType { params: [], results: Named([]) })
    0x61 | 0a 0b       | component import section
    0x63 | 02          | 2 count
    0x64 | 01 62 00 01 | [func 0] ComponentImport { name: "b", url: "", ty: Func(0) }
         | 00         
    0x69 | 01 63 00 02 | [value 0] ComponentImport { name: "c", url: "", ty: Value(Primitive(String)) }
         | 73         
    0x6e | 07 03       | component type section
    0x70 | 01          | 1 count
    0x71 | 42 00       | [type 1] Instance([])
    0x73 | 0a 06       | component import section
    0x75 | 01          | 1 count
    0x76 | 01 64 00 05 | [instance 0] ComponentImport { name: "d", url: "", ty: Instance(1) }
         | 01         
    0x7b | 07 03       | component type section
    0x7d | 01          | 1 count
    0x7e | 41 00       | [type 2] Component([])
    0x80 | 0a 06       | component import section
    0x82 | 01          | 1 count
    0x83 | 01 65 00 04 | [component 0] ComponentImport { name: "e", url: "", ty: Component(2) }
         | 02         
    0x88 | 00 13       | custom section
    0x8a | 0e 63 6f 6d | name: "component-name"
         | 70 6f 6e 65
         | 6e 74 2d 6e
         | 61 6d 65   
    0x99 | 00 02       | component name
    0x9b | 01 63       | "c"
  0x9d | 06 1b       | component alias section
  0x9f | 05          | 5 count
  0xa0 | 00 11 00 00 | alias [module 0] InstanceExport { kind: Module, instance_index: 0, name: "a" }
       | 01 61      
  0xa6 | 01 00 00 01 | alias [func 0] InstanceExport { kind: Func, instance_index: 0, name: "b" }
       | 62         
  0xab | 02 00 00 01 | alias [value 0] InstanceExport { kind: Value, instance_index: 0, name: "c" }
       | 63         
  0xb0 | 05 00 00 01 | alias [instance 1] InstanceExport { kind: Instance, instance_index: 0, name: "d" }
       | 64         
  0xb5 | 04 00 00 01 | alias [component 1] InstanceExport { kind: Component, instance_index: 0, name: "e" }
       | 65         
  0xba | 05 19       | component instance section
  0xbc | 01          | 1 count
  0xbd | 00 00 05 01 | [instance 2] Instantiate { component_index: 0, args: [ComponentInstantiationArg { name: "a", kind: Module, index: 0 }, ComponentInstantiationArg { name: "b", kind: Func, index: 0 }, ComponentInstantiationArg { name: "c", kind: Value, index: 0 }, ComponentInstantiationArg { name: "d", kind: Instance, index: 1 }, ComponentInstantiationArg { name: "e", kind: Component, index: 1 }] }
       | 61 00 11 00
       | 01 62 01 00
       | 01 63 02 00
       | 01 64 05 01
       | 01 65 04 01
  0xd5 | 04 34       | [component 2] inline size
    0xd7 | 00 61 73 6d | version 12 (Component)
         | 0c 00 01 00
    0xdf | 06 05       | component alias section
    0xe1 | 01          | 1 count
    0xe2 | 03 02 01 00 | alias [type 0] Outer { kind: Type, count: 1, index: 0 }
    0xe6 | 0a 06       | component import section
    0xe8 | 01          | 1 count
    0xe9 | 01 61 00 05 | [instance 0] ComponentImport { name: "a", url: "", ty: Instance(0) }
         | 00         
    0xee | 00 1b       | custom section
    0xf0 | 0e 63 6f 6d | name: "component-name"
         | 70 6f 6e 65
         | 6e 74 2d 6e
         | 61 6d 65   
    0xff | 00 03       | component name
   0x101 | 02 63 32    | "c2"
   0x104 | 01 05 03    | type section
   0x107 | 01          | 1 count
   0x108 | 00 01 74    | Naming { index: 0, name: "t" }
 0x10b | 06 1b       | component alias section
 0x10d | 05          | 5 count
 0x10e | 00 11 00 00 | alias [module 1] InstanceExport { kind: Module, instance_index: 0, name: "a" }
       | 01 61      
 0x114 | 01 00 00 01 | alias [func 1] InstanceExport { kind: Func, instance_index: 0, name: "b" }
       | 62         
 0x119 | 02 00 00 01 | alias [value 1] InstanceExport { kind: Value, instance_index: 0, name: "c" }
       | 63         
 0x11e | 05 00 00 01 | alias [instance 3] InstanceExport { kind: Instance, instance_index: 0, name: "d" }
       | 64         
 0x123 | 04 00 00 01 | alias [component 3] InstanceExport { kind: Component, instance_index: 0, name: "e" }
       | 65         
 0x128 | 05 1f       | component instance section
 0x12a | 02          | 2 count
 0x12b | 01 05 01 61 | [instance 4] FromExports([ComponentExport { name: "a", url: "", kind: Module, index: 1, ty: None }, ComponentExport { name: "b", url: "", kind: Func, index: 1, ty: None }, ComponentExport { name: "c", url: "", kind: Value, index: 1, ty: None }, ComponentExport { name: "d", url: "", kind: Instance, index: 3, ty: None }, ComponentExport { name: "e", url: "", kind: Component, index: 3, ty: None }])
       | 00 11 01 01
       | 62 01 01 01
       | 63 02 01 01
       | 64 05 03 01
       | 65 04 03   
 0x142 | 00 02 01 01 | [instance 5] Instantiate { component_index: 2, args: [ComponentInstantiationArg { name: "a", kind: Instance, index: 4 }] }
       | 61 05 04   
 0x149 | 01 48       | [core module 2] inline size
   0x14b | 00 61 73 6d | version 1 (Module)
         | 01 00 00 00
   0x153 | 01 04       | type section
   0x155 | 01          | 1 count
   0x156 | 60 00 00    | [type 0] Func(FuncType { params: [], returns: [] })
   0x159 | 03 02       | func section
   0x15b | 01          | 1 count
   0x15c | 00          | [func 0] type 0
   0x15d | 04 04       | table section
   0x15f | 01          | 1 count
   0x160 | 70 00 01    | [table 0] Table { ty: TableType { element_type: RefType { nullable: true, heap_type: Func }, initial: 1, maximum: None }, init: RefNull }
   0x163 | 05 03       | memory section
   0x165 | 01          | 1 count
   0x166 | 00 01       | [memory 0] MemoryType { memory64: false, shared: false, initial: 1, maximum: None }
   0x168 | 06 04       | global section
   0x16a | 01          | 1 count
   0x16b | 7f 00       | [global 0] GlobalType { content_type: I32, mutable: false }
   0x16d | 0b          | end
   0x16e | 07 11       | export section
   0x170 | 04          | 4 count
   0x171 | 01 31 00 00 | export Export { name: "1", kind: Func, index: 0 }
   0x175 | 01 32 02 00 | export Export { name: "2", kind: Memory, index: 0 }
   0x179 | 01 33 03 00 | export Export { name: "3", kind: Global, index: 0 }
   0x17d | 01 34 01 00 | export Export { name: "4", kind: Table, index: 0 }
   0x181 | 0a 04       | code section
   0x183 | 01          | 1 count
============== func 0 ====================
   0x184 | 02          | size of function
   0x185 | 00          | 0 local blocks
   0x186 | 0b          | end
   0x187 | 00 0a       | custom section
   0x189 | 04 6e 61 6d | name: "name"
         | 65         
   0x18e | 00 03       | module name
   0x190 | 02 6d 31    | "m1"
 0x193 | 01 35       | [core module 3] inline size
   0x195 | 00 61 73 6d | version 1 (Module)
         | 01 00 00 00
   0x19d | 01 04       | type section
   0x19f | 01          | 1 count
   0x1a0 | 60 00 00    | [type 0] Func(FuncType { params: [], returns: [] })
   0x1a3 | 02 19       | import section
   0x1a5 | 04          | 4 count
   0x1a6 | 00 01 31 00 | import [func 0] Import { module: "", name: "1", ty: Func(0) }
         | 00         
   0x1ab | 00 01 32 02 | import [memory 0] Import { module: "", name: "2", ty: Memory(MemoryType { memory64: false, shared: false, initial: 1, maximum: None }) }
         | 00 01      
   0x1b1 | 00 01 33 03 | import [global 0] Import { module: "", name: "3", ty: Global(GlobalType { content_type: I32, mutable: false }) }
         | 7f 00      
   0x1b7 | 00 01 34 01 | import [table 0] Import { module: "", name: "4", ty: Table(TableType { element_type: RefType { nullable: true, heap_type: Func }, initial: 1, maximum: None }) }
         | 70 00 01   
   0x1be | 00 0a       | custom section
   0x1c0 | 04 6e 61 6d | name: "name"
         | 65         
   0x1c5 | 00 03       | module name
   0x1c7 | 02 6d 32    | "m2"
 0x1ca | 02 0a       | core instance section
 0x1cc | 02          | 2 count
 0x1cd | 00 02 00    | [core instance 0] Instantiate { module_index: 2, args: [] }
 0x1d0 | 00 03 01 00 | [core instance 1] Instantiate { module_index: 3, args: [InstantiationArg { name: "", kind: Instance, index: 0 }] }
       | 12 00      
 0x1d6 | 06 19       | component alias section
 0x1d8 | 04          | 4 count
 0x1d9 | 00 00 01 00 | alias [core func 0] CoreInstanceExport { kind: Func, instance_index: 0, name: "1" }
       | 01 31      
 0x1df | 00 02 01 00 | alias [core memory 0] CoreInstanceExport { kind: Memory, instance_index: 0, name: "2" }
       | 01 32      
 0x1e5 | 00 03 01 00 | alias [core global 0] CoreInstanceExport { kind: Global, instance_index: 0, name: "3" }
       | 01 33      
 0x1eb | 00 01 01 00 | alias [core table 0] CoreInstanceExport { kind: Table, instance_index: 0, name: "4" }
       | 01 34      
 0x1f1 | 02 19       | core instance section
 0x1f3 | 02          | 2 count
 0x1f4 | 01 04 01 31 | [core instance 2] FromExports([Export { name: "1", kind: Func, index: 0 }, Export { name: "2", kind: Memory, index: 0 }, Export { name: "3", kind: Global, index: 0 }, Export { name: "4", kind: Table, index: 0 }])
       | 00 00 01 32
       | 02 00 01 33
       | 03 00 01 34
       | 01 00      
 0x206 | 00 03 01 00 | [core instance 3] Instantiate { module_index: 3, args: [InstantiationArg { name: "", kind: Instance, index: 2 }] }
       | 12 02      
 0x20c | 00 76       | custom section
 0x20e | 0e 63 6f 6d | name: "component-name"
       | 70 6f 6e 65
       | 6e 74 2d 6e
       | 61 6d 65   
 0x21d | 01 06 00 00 | core func section
 0x221 | 01          | 1 count
 0x222 | 00 01 66    | Naming { index: 0, name: "f" }
 0x225 | 01 06 00 01 | core table section
 0x229 | 01          | 1 count
 0x22a | 00 01 74    | Naming { index: 0, name: "t" }
 0x22d | 01 06 00 02 | core memory section
 0x231 | 01          | 1 count
 0x232 | 00 01 6d    | Naming { index: 0, name: "m" }
 0x235 | 01 06 00 03 | core global section
 0x239 | 01          | 1 count
 0x23a | 00 01 67    | Naming { index: 0, name: "g" }
 0x23d | 01 0e 00 11 | core module section
 0x241 | 03          | 3 count
 0x242 | 01 01 6d    | Naming { index: 1, name: "m" }
 0x245 | 02 02 6d 31 | Naming { index: 2, name: "m1" }
 0x249 | 03 02 6d 32 | Naming { index: 3, name: "m2" }
 0x24d | 01 06 00 12 | core instance section
 0x251 | 01          | 1 count
 0x252 | 00 01 69    | Naming { index: 0, name: "i" }
 0x255 | 01 05 01    | func section
 0x258 | 01          | 1 count
 0x259 | 01 01 66    | Naming { index: 1, name: "f" }
 0x25c | 01 05 02    | value section
 0x25f | 01          | 1 count
 0x260 | 01 01 76    | Naming { index: 1, name: "v" }
 0x263 | 01 05 03    | type section
 0x266 | 01          | 1 count
 0x267 | 00 01 74    | Naming { index: 0, name: "t" }
 0x26a | 01 0d 04    | component section
 0x26d | 03          | 3 count
 0x26e | 00 01 63    | Naming { index: 0, name: "c" }
 0x271 | 02 02 63 32 | Naming { index: 2, name: "c2" }
 0x275 | 03 02 63 33 | Naming { index: 3, name: "c3" }
 0x279 | 01 09 05    | instance section
 0x27c | 02          | 2 count
 0x27d | 00 01 69    | Naming { index: 0, name: "i" }
 0x280 | 03 02 69 32 | Naming { index: 3, name: "i2" }
