  0x0 | 00 61 73 6d | version 13 (Component)
      | 0d 00 01 00
  0x8 | 07 0e       | component type section
  0xa | 02          | 2 count
  0xb | 73          | [type 0] Defined(Primitive(String))
  0xc | 41 02 02 03 | [type 1] Component([Alias(Outer { kind: Type, count: 1, index: 0 }), Type(Func(ComponentFuncType { async_: false, params: [], result: Some(Type(0)) }))])
      | 02 01 00 01
      | 40 00 00 00
 0x18 | 04 16       | [component 0] inline size
   0x1a | 00 61 73 6d | version 13 (Component)
        | 0d 00 01 00
   0x22 | 06 05       | component alias section
   0x24 | 01          | 1 count
   0x25 | 03 02 01 00 | alias [type 0] Outer { kind: Type, count: 1, index: 0 }
   0x29 | 07 05       | component type section
   0x2b | 01          | 1 count
   0x2c | 40 00 00 00 | [type 1] Func(ComponentFuncType { async_: false, params: [], result: Some(Type(0)) })
 0x30 | 04 24       | [component 1] inline size
   0x32 | 00 61 73 6d | version 13 (Component)
        | 0d 00 01 00
   0x3a | 06 05       | component alias section
   0x3c | 01          | 1 count
   0x3d | 03 02 01 00 | alias [type 0] Outer { kind: Type, count: 1, index: 0 }
   0x41 | 07 05       | component type section
   0x43 | 01          | 1 count
   0x44 | 40 00 00 00 | [type 1] Func(ComponentFuncType { async_: false, params: [], result: Some(Type(0)) })
   0x48 | 06 05       | component alias section
   0x4a | 01          | 1 count
   0x4b | 03 02 01 00 | alias [type 2] Outer { kind: Type, count: 1, index: 0 }
   0x4f | 07 05       | component type section
   0x51 | 01          | 1 count
   0x52 | 40 00 00 02 | [type 3] Func(ComponentFuncType { async_: false, params: [], result: Some(Type(2)) })
 0x56 | 07 02       | component type section
 0x58 | 01          | 1 count
 0x59 | 7d          | [type 2] Defined(Primitive(U8))
 0x5a | 04 24       | [component 2] inline size
   0x5c | 00 61 73 6d | version 13 (Component)
        | 0d 00 01 00
   0x64 | 06 05       | component alias section
   0x66 | 01          | 1 count
   0x67 | 03 02 01 02 | alias [type 0] Outer { kind: Type, count: 1, index: 2 }
   0x6b | 07 05       | component type section
   0x6d | 01          | 1 count
   0x6e | 40 00 00 00 | [type 1] Func(ComponentFuncType { async_: false, params: [], result: Some(Type(0)) })
   0x72 | 06 05       | component alias section
   0x74 | 01          | 1 count
   0x75 | 03 02 01 02 | alias [type 2] Outer { kind: Type, count: 1, index: 2 }
   0x79 | 07 05       | component type section
   0x7b | 01          | 1 count
   0x7c | 40 00 00 02 | [type 3] Func(ComponentFuncType { async_: false, params: [], result: Some(Type(2)) })
 0x80 | 00 1a       | custom section
 0x82 | 0e 63 6f 6d | name: "component-name"
      | 70 6f 6e 65
      | 6e 74 2d 6e
      | 61 6d 65   
 0x91 | 01 09 03    | type name section
 0x94 | 02          | 2 count
 0x95 | 00 01 74    | Naming { index: 0, name: "t" }
 0x98 | 02 02 74 32 | Naming { index: 2, name: "t2" }
