  0x0 | 00 61 73 6d | version 1 (Module)
      | 01 00 00 00
  0x8 | 01 04       | type section
  0xa | 01          | 1 count
  0xb | 60 00 00    | [type 0] RecGroup { types: [SubType { is_final: true, supertype_idx: None, composite_type: Func(FuncType { params: [], results: [] }) }], explicit_rec_group: false }
  0xe | 03 02       | func section
 0x10 | 01          | 1 count
 0x11 | 00          | [func 0] type 0
 0x12 | 0a 0e       | code section
 0x14 | 01          | 1 count
============== func 0 ====================
 0x15 | 0c          | size of function
 0x16 | 00          | 0 local blocks
 0x17 | 1b          | select
 0x18 | 1c 00       | ??
 0x1a | 1c 01 7f    | typed_select ty:I32
 0x1d | 1c 02       | ??
 0x1f | 7f          | i64_div_s
 0x20 | 7f          | i64_div_s
 0x21 | 0b          | end
