  0x0 | 00 61 73 6d | version 65546 (Component)
      | 0a 00 01 00
  0x8 | 07 1d       | component type section
  0xa | 01          | 1 count
  0xb | 42 04 01 40 | [type 0] Instance([Type(Func(ComponentFuncType { params: [], results: Named([]) })), Export { name: "f1", ty: Func(0) }, Type(Func(ComponentFuncType { params: [("p1", Primitive(String))], results: Named([]) })), Export { name: "f2", ty: Func(1) }])
      | 00 01 00 04
      | 02 66 31 01
      | 00 01 40 01
      | 02 70 31 73
      | 01 00 04 02
      | 66 32 01 01
 0x27 | 0a 05       | component import section
 0x29 | 01          | 1 count
 0x2a | 01 69 05 00 | [instance 0] ComponentImport { name: "i", ty: Instance(0) }
 0x2e | 06 13       | component alias section
 0x30 | 03          | 3 count
 0x31 | 01 00 00 02 | alias [func 0] InstanceExport { kind: Func, instance_index: 0, name: "f1" }
      | 66 31      
 0x37 | 01 00 00 02 | alias [func 1] InstanceExport { kind: Func, instance_index: 0, name: "f2" }
      | 66 32      
 0x3d | 01 00 00 02 | alias [func 2] InstanceExport { kind: Func, instance_index: 0, name: "f1" }
      | 66 31      
 0x43 | 08 05       | canonical function section
 0x45 | 01          | 1 count
 0x46 | 01 00 02 00 | [core func 0] Lower { func_index: 2, options: [] }
 0x4a | 01 2b       | [core module 0] inline size
   0x4c | 00 61 73 6d | version 1 (Module)
        | 01 00 00 00
   0x54 | 01 04       | type section
   0x56 | 01          | 1 count
   0x57 | 60 00 00    | [type 0] Func(FuncType { params: [], returns: [] })
   0x5a | 03 02       | func section
   0x5c | 01          | 1 count
   0x5d | 00          | [func 0] type 0
   0x5e | 07 06       | export section
   0x60 | 01          | 1 count
   0x61 | 02 66 33 00 | export Export { name: "f3", kind: Func, index: 0 }
        | 00         
   0x66 | 0a 04       | code section
   0x68 | 01          | 1 count
============== func 0 ====================
   0x69 | 02          | size of function
   0x6a | 00          | 0 local blocks
   0x6b | 0b          | end
   0x6c | 00 09       | custom section
   0x6e | 04 6e 61 6d | name: "name"
        | 65         
   0x73 | 00 02       | module name
   0x75 | 01 6d       | "m"
 0x77 | 02 04       | core instance section
 0x79 | 01          | 1 count
 0x7a | 00 00 00    | [core instance 0] Instantiate { module_index: 0, args: [] }
 0x7d | 06 0f       | component alias section
 0x7f | 02          | 2 count
 0x80 | 00 00 01 00 | alias [core func 1] CoreInstanceExport { kind: Func, instance_index: 0, name: "f3" }
      | 02 66 33   
 0x87 | 00 00 01 00 | alias [core func 2] CoreInstanceExport { kind: Func, instance_index: 0, name: "f3" }
      | 02 66 33   
