   0x0 | 00 61 73 6d | version 65546 (Component)
       | 0a 00 01 00
   0x8 | 08 2a       | component type section
   0xa | 01          | 1 count
   0xb | 42 09 00 50 | [type 0] Instance([CoreType(Module([])), Export { name: "1", ty: Module(0) }, Type(Func(ComponentFuncType { params: [], result: Primitive(Unit) })), Export { name: "2", ty: Func(0) }, Export { name: "3", ty: Value(Primitive(String)) }, Type(Instance([])), Export { name: "4", ty: Instance(1) }, Type(Component([])), Export { name: "5", ty: Component(2) }])
       | 00 04 01 31
       | 00 11 00 01
       | 40 00 7f 04
       | 01 32 01 00
       | 04 01 33 02
       | 72 01 42 00
       | 04 01 34 05
       | 01 01 41 00
       | 04 01 35 04
       | 02         
  0x34 | 0b 04       | component import section
  0x36 | 01          | 1 count
  0x37 | 00 05 00    | [instance 0] ComponentImport { name: "", ty: Instance(0) }
  0x3a | 05 3e       | [component 0] inline size
    0x3c | 00 61 73 6d | version 65546 (Component)
         | 0a 00 01 00
    0x44 | 04 03       | core type section
    0x46 | 01          | 1 count
    0x47 | 50 00       | [core type 0] Module([])
    0x49 | 0b 06       | component import section
    0x4b | 01          | 1 count
    0x4c | 01 31 00 11 | [module 0] ComponentImport { name: "1", ty: Module(0) }
         | 00         
    0x51 | 08 04       | component type section
    0x53 | 01          | 1 count
    0x54 | 40 00 7f    | [type 0] Func(ComponentFuncType { params: [], result: Primitive(Unit) })
    0x57 | 0b 09       | component import section
    0x59 | 02          | 2 count
    0x5a | 01 32 01 00 | [func 0] ComponentImport { name: "2", ty: Func(0) }
    0x5e | 01 33 02 72 | [value 0] ComponentImport { name: "3", ty: Value(Primitive(String)) }
    0x62 | 08 03       | component type section
    0x64 | 01          | 1 count
    0x65 | 42 00       | [type 1] Instance([])
    0x67 | 0b 05       | component import section
    0x69 | 01          | 1 count
    0x6a | 01 34 05 01 | [instance 0] ComponentImport { name: "4", ty: Instance(1) }
    0x6e | 08 03       | component type section
    0x70 | 01          | 1 count
    0x71 | 41 00       | [type 2] Component([])
    0x73 | 0b 05       | component import section
    0x75 | 01          | 1 count
    0x76 | 01 35 04 02 | [component 0] ComponentImport { name: "5", ty: Component(2) }
  0x7a | 07 1b       | component alias section
  0x7c | 05          | 5 count
  0x7d | 00 11 00 00 | alias [module 0] InstanceExport { kind: Module, instance_index: 0, name: "1" }
       | 01 31      
  0x83 | 01 00 00 01 | alias [func 0] InstanceExport { kind: Func, instance_index: 0, name: "2" }
       | 32         
  0x88 | 02 00 00 01 | alias [value 0] InstanceExport { kind: Value, instance_index: 0, name: "4" }
       | 34         
  0x8d | 05 00 00 01 | alias [instance 1] InstanceExport { kind: Instance, instance_index: 0, name: "3" }
       | 33         
  0x92 | 04 00 00 01 | alias [component 1] InstanceExport { kind: Component, instance_index: 0, name: "5" }
       | 35         
  0x97 | 06 19       | component instance section
  0x99 | 01          | 1 count
  0x9a | 00 00 05 01 | [instance 2] Instantiate { component_index: 0, args: [ComponentInstantiationArg { name: "1", kind: Module, index: 0 }, ComponentInstantiationArg { name: "2", kind: Func, index: 0 }, ComponentInstantiationArg { name: "3", kind: Value, index: 0 }, ComponentInstantiationArg { name: "4", kind: Instance, index: 1 }, ComponentInstantiationArg { name: "5", kind: Component, index: 1 }] }
       | 31 00 11 00
       | 01 32 01 00
       | 01 33 02 00
       | 01 34 05 01
       | 01 35 04 01
  0xb2 | 05 15       | [component 2] inline size
    0xb4 | 00 61 73 6d | version 65546 (Component)
         | 0a 00 01 00
    0xbc | 07 05       | component alias section
    0xbe | 01          | 1 count
    0xbf | 03 01 01 00 | alias [type 0] Outer { kind: Type, count: 1, index: 0 }
    0xc3 | 0b 04       | component import section
    0xc5 | 01          | 1 count
    0xc6 | 00 05 00    | [instance 0] ComponentImport { name: "", ty: Instance(0) }
  0xc9 | 07 1b       | component alias section
  0xcb | 05          | 5 count
  0xcc | 00 11 00 00 | alias [module 1] InstanceExport { kind: Module, instance_index: 0, name: "1" }
       | 01 31      
  0xd2 | 01 00 00 01 | alias [func 1] InstanceExport { kind: Func, instance_index: 0, name: "2" }
       | 32         
  0xd7 | 02 00 00 01 | alias [value 1] InstanceExport { kind: Value, instance_index: 0, name: "3" }
       | 33         
  0xdc | 05 00 00 01 | alias [instance 3] InstanceExport { kind: Instance, instance_index: 0, name: "4" }
       | 34         
  0xe1 | 04 00 00 01 | alias [component 3] InstanceExport { kind: Component, instance_index: 0, name: "5" }
       | 35         
  0xe6 | 06 1e       | component instance section
  0xe8 | 02          | 2 count
  0xe9 | 01 05 01 31 | [instance 4] FromExports([ComponentExport { name: "1", kind: Module, index: 1 }, ComponentExport { name: "2", kind: Func, index: 1 }, ComponentExport { name: "3", kind: Value, index: 1 }, ComponentExport { name: "4", kind: Instance, index: 3 }, ComponentExport { name: "5", kind: Component, index: 3 }])
       | 00 11 01 01
       | 32 01 01 01
       | 33 02 01 01
       | 34 05 03 01
       | 35 04 03   
 0x100 | 00 02 01 00 | [instance 5] Instantiate { component_index: 2, args: [ComponentInstantiationArg { name: "", kind: Instance, index: 4 }] }
       | 05 04      
 0x106 | 01 48       | [core module 2] inline size
   0x108 | 00 61 73 6d | version 1 (Module)
         | 01 00 00 00
   0x110 | 01 04       | type section
   0x112 | 01          | 1 count
   0x113 | 60 00 00    | [type 0] Func(FuncType { params: [], returns: [] })
   0x116 | 03 02       | func section
   0x118 | 01          | 1 count
   0x119 | 00          | [func 0] type 0
   0x11a | 04 04       | table section
   0x11c | 01          | 1 count
   0x11d | 70 00 01    | [table 0] TableType { element_type: FuncRef, initial: 1, maximum: None }
   0x120 | 05 03       | memory section
   0x122 | 01          | 1 count
   0x123 | 00 01       | [memory 0] MemoryType { memory64: false, shared: false, initial: 1, maximum: None }
   0x125 | 06 04       | global section
   0x127 | 01          | 1 count
   0x128 | 7f 00       | [global 0] GlobalType { content_type: I32, mutable: false }
   0x12a | 0b          | End
   0x12b | 07 11       | export section
   0x12d | 04          | 4 count
   0x12e | 01 31 00 00 | export Export { name: "1", kind: Func, index: 0 }
   0x132 | 01 32 02 00 | export Export { name: "2", kind: Memory, index: 0 }
   0x136 | 01 33 03 00 | export Export { name: "3", kind: Global, index: 0 }
   0x13a | 01 34 01 00 | export Export { name: "4", kind: Table, index: 0 }
   0x13e | 0a 04       | code section
   0x140 | 01          | 1 count
============== func 0 ====================
   0x141 | 02          | size of function
   0x142 | 00          | 0 local blocks
   0x143 | 0b          | End
   0x144 | 00 0a       | custom section
   0x146 | 04 6e 61 6d | name: "name"
         | 65         
   0x14b | 00 03       | module name
   0x14d | 02 6d 31    | "m1"
 0x150 | 01 35       | [core module 3] inline size
   0x152 | 00 61 73 6d | version 1 (Module)
         | 01 00 00 00
   0x15a | 01 04       | type section
   0x15c | 01          | 1 count
   0x15d | 60 00 00    | [type 0] Func(FuncType { params: [], returns: [] })
   0x160 | 02 19       | import section
   0x162 | 04          | 4 count
   0x163 | 00 01 31 00 | import [func 0] Import { module: "", name: "1", ty: Func(0) }
         | 00         
   0x168 | 00 01 32 02 | import [memory 0] Import { module: "", name: "2", ty: Memory(MemoryType { memory64: false, shared: false, initial: 1, maximum: None }) }
         | 00 01      
   0x16e | 00 01 33 03 | import [global 0] Import { module: "", name: "3", ty: Global(GlobalType { content_type: I32, mutable: false }) }
         | 7f 00      
   0x174 | 00 01 34 01 | import [table 0] Import { module: "", name: "4", ty: Table(TableType { element_type: FuncRef, initial: 1, maximum: None }) }
         | 70 00 01   
   0x17b | 00 0a       | custom section
   0x17d | 04 6e 61 6d | name: "name"
         | 65         
   0x182 | 00 03       | module name
   0x184 | 02 6d 32    | "m2"
 0x187 | 02 0a       | core instance section
 0x189 | 02          | 2 count
 0x18a | 00 02 00    | [core instance 0] Instantiate { module_index: 2, args: [] }
 0x18d | 00 03 01 00 | [core instance 1] Instantiate { module_index: 3, args: [InstantiationArg { name: "", kind: Instance, index: 0 }] }
       | 12 00      
 0x193 | 03 15       | core alias section
 0x195 | 04          | 4 count
 0x196 | 00 00 00 01 | core alias [func 0] InstanceExport { kind: Func, instance_index: 0, name: "1" }
       | 31         
 0x19b | 02 00 00 01 | core alias [memory 0] InstanceExport { kind: Memory, instance_index: 0, name: "2" }
       | 32         
 0x1a0 | 03 00 00 01 | core alias [global 0] InstanceExport { kind: Global, instance_index: 0, name: "3" }
       | 33         
 0x1a5 | 01 00 00 01 | core alias [table 0] InstanceExport { kind: Table, instance_index: 0, name: "4" }
       | 34         
 0x1aa | 02 19       | core instance section
 0x1ac | 02          | 2 count
 0x1ad | 01 04 01 31 | [core instance 2] FromExports([Export { name: "1", kind: Func, index: 0 }, Export { name: "2", kind: Memory, index: 0 }, Export { name: "3", kind: Global, index: 0 }, Export { name: "4", kind: Table, index: 0 }])
       | 00 00 01 32
       | 02 00 01 33
       | 03 00 01 34
       | 01 00      
 0x1bf | 00 03 01 00 | [core instance 3] Instantiate { module_index: 3, args: [InstantiationArg { name: "", kind: Instance, index: 2 }] }
       | 12 02      
