0x0000 | 00 61 73 6d | version 1
       | 01 00 00 00
0x0008 | 01 54       | type section
0x000a | 05          | 5 count
0x000b | 60 03 7f 7f | [type 0] Func(FuncType { params: [I32, I32, I32], returns: [I32] })
       | 7f 01 7f   
0x0012 | 62 02 04 72 | [type 1] Instance(InstanceType { exports: [ExportType { name: "read", ty: Function(0) }, ExportType { name: "write", ty: Function(0) }] })
       | 65 61 64 00
       | 00 05 77 72
       | 69 74 65 00
       | 00         
0x0023 | 60 00 00    | [type 2] Func(FuncType { params: [], returns: [] })
0x0026 | 61 01 09 77 | [type 3] Module(ModuleType { imports: [Import { module: "wasi_file", field: None, ty: Instance(1) }], exports: [ExportType { name: "play", ty: Function(2) }] })
       | 61 73 69 5f
       | 66 69 6c 65
       | 01 c0 06 01
       | 01 04 70 6c
       | 61 79 00 02
0x003e | 61 01 09 77 | [type 4] Module(ModuleType { imports: [Import { module: "wasi_file", field: None, ty: Instance(1) }], exports: [ExportType { name: "read", ty: Function(0) }, ExportType { name: "write", ty: Function(0) }] })
       | 61 73 69 5f
       | 66 69 6c 65
       | 01 c0 06 01
       | 02 04 72 65
       | 61 64 00 00
       | 05 77 72 69
       | 74 65 00 00
0x005e | 02 0f       | import section
0x0060 | 01          | 1 count
0x0061 | 09 77 61 73 | import [instance 0] Import { module: "wasi_file", field: None, ty: Instance(1) }
       | 69 5f 66 69
       | 6c 65 01 c0
       | 06 01      
0x006f | 64 03       | module section
0x0071 | 02          | 2 count
0x0072 | 03          | [module 0] type 3
0x0073 | 04          | [module 1] type 4
0x0074 | 65 09       | instance section
0x0076 | 02          | 2 count
0x0077 | 01          | [instance 1] module:1
0x0078 | 01          | 1 count
0x0079 | 06 00       | [instantiate arg] Instance 0
0x007b | 00          | [instance 2] module:0
0x007c | 01          | 1 count
0x007d | 06 01       | [instantiate arg] Instance 1
0x007f | 66 05       | alias section
0x0081 | 01          | 1 count
0x0082 | 00 02 00 00 | [alias] Alias { instance: Child(2), kind: Function, index: 0 }
0x0086 | 03 02       | func section
0x0088 | 01          | 1 count
0x0089 | 02          | [func 1] type 2
0x008a | 07 08       | export section
0x008c | 01          | 1 count
0x008d | 04 77 6f 72 | export Export { field: "work", kind: Function, index: 1 }
       | 6b 00 01   
0x0094 | 67 b5 01    | module code section
0x0097 | 02          | 2 count
0x0098 | 51          | inline module size
  0x0099 | 00 61 73 6d | version 1
         | 01 00 00 00
  0x00a1 | 66 04       | alias section
  0x00a3 | 01          | 1 count
  0x00a4 | 01 07 01    | [alias] Alias { instance: Parent, kind: Type, index: 1 }
  0x00a7 | 01 04       | type section
  0x00a9 | 01          | 1 count
  0x00aa | 60 00 00    | [type 1] Func(FuncType { params: [], returns: [] })
  0x00ad | 02 0f       | import section
  0x00af | 01          | 1 count
  0x00b0 | 09 77 61 73 | import [instance 0] Import { module: "wasi_file", field: None, ty: Instance(0) }
         | 69 5f 66 69
         | 6c 65 01 c0
         | 06 00      
  0x00be | 03 02       | func section
  0x00c0 | 01          | 1 count
  0x00c1 | 01          | [func 0] type 1
  0x00c2 | 07 08       | export section
  0x00c4 | 01          | 1 count
  0x00c5 | 04 70 6c 61 | export Export { field: "play", kind: Function, index: 0 }
         | 79 00 00   
  0x00cc | 0a 04       | code section
  0x00ce | 01          | 1 count
============== func 0 ====================
  0x00cf | 02          | size of function
  0x00d0 | 00          | 0 local blocks
  0x00d1 | 0b          | End
  0x00d2 | 00 16 04 6e | custom section: "name"
         | 61 6d 65   
  0x00d9 | 00 06       | module name
  0x00db | 05 43 48 49 | "CHILD"
         | 4c 44      
  0x00e1 | 01 07       | function names
  0x00e3 | 01          | 1 count
  0x00e4 | 00 04 70 6c | Naming { index: 0, name: "play" }
         | 61 79      
0x00ea | 61          | inline module size
  0x00eb | 00 61 73 6d | version 1
         | 01 00 00 00
  0x00f3 | 66 04       | alias section
  0x00f5 | 01          | 1 count
  0x00f6 | 01 07 01    | [alias] Alias { instance: Parent, kind: Type, index: 1 }
  0x00f9 | 01 08       | type section
  0x00fb | 01          | 1 count
  0x00fc | 60 03 7f 7f | [type 1] Func(FuncType { params: [I32, I32, I32], returns: [I32] })
         | 7f 01 7f   
  0x0103 | 02 0f       | import section
  0x0105 | 01          | 1 count
  0x0106 | 09 77 61 73 | import [instance 0] Import { module: "wasi_file", field: None, ty: Instance(0) }
         | 69 5f 66 69
         | 6c 65 01 c0
         | 06 00      
  0x0114 | 03 03       | func section
  0x0116 | 02          | 2 count
  0x0117 | 01          | [func 0] type 1
  0x0118 | 01          | [func 1] type 1
  0x0119 | 07 10       | export section
  0x011b | 02          | 2 count
  0x011c | 04 72 65 61 | export Export { field: "read", kind: Function, index: 0 }
         | 64 00 00   
  0x0123 | 05 77 72 69 | export Export { field: "write", kind: Function, index: 1 }
         | 74 65 00 01
  0x012b | 0a 0b       | code section
  0x012d | 02          | 2 count
============== func 0 ====================
  0x012e | 04          | size of function
  0x012f | 00          | 0 local blocks
  0x0130 | 41 00       | I32Const { value: 0 }
  0x0132 | 0b          | End
============== func 1 ====================
  0x0133 | 04          | size of function
  0x0134 | 00          | 0 local blocks
  0x0135 | 41 00       | I32Const { value: 0 }
  0x0137 | 0b          | End
  0x0138 | 00 12 04 6e | custom section: "name"
         | 61 6d 65   
  0x013f | 00 0b       | module name
  0x0141 | 0a 56 49 52 | "VIRTUALIZE"
         | 54 55 41 4c
         | 49 5a 45   
0x014c | 0a 06       | code section
0x014e | 01          | 1 count
============== func 1 ====================
0x014f | 04          | size of function
0x0150 | 00          | 0 local blocks
0x0151 | 10 00       | Call { function_index: 0 }
0x0153 | 0b          | End
0x0154 | 00 15 04 6e | custom section: "name"
       | 61 6d 65   
0x015b | 01 0e       | function names
0x015d | 01          | 1 count
0x015e | 00 0b 63 68 | Naming { index: 0, name: "child.$play" }
       | 69 6c 64 2e
       | 24 70 6c 61
       | 79         
