0x0000 | 00 61 73 6d | version 1
       | 01 00 00 00
0x0008 | 01 19       | type section
0x000a | 02          | 2 count
0x000b | 60 03 7f 7f | [type 0] Func(FuncType { params: [I32, I32, I32], returns: [I32] })
       | 7f 01 7f   
0x0012 | 62 02 04 72 | [type 1] Instance(InstanceType { exports: [ExportType { name: "read", ty: Function(0) }, ExportType { name: "write", ty: Function(0) }] })
       | 65 61 64 00
       | 00 05 77 72
       | 69 74 65 00
       | 00         
0x0023 | 02 0f       | import section
0x0025 | 01          | 1 count
0x0026 | 09 77 61 73 | import [instance 0] Import { module: "wasi_file", field: None, ty: Instance(1) }
       | 69 5f 66 69
       | 6c 65 00 ff
       | 06 01      
0x0034 | 0e b5 01    | module section
0x0037 | 02          | 2 count
0x0038 | 51          | inline module size
  0x0039 | 00 61 73 6d | version 1
         | 01 00 00 00
  0x0041 | 10 04       | alias section
  0x0043 | 01          | 1 count
  0x0044 | 01 07 01    | [alias] ParentType(1)
  0x0047 | 02 0f       | import section
  0x0049 | 01          | 1 count
  0x004a | 09 77 61 73 | import [instance 0] Import { module: "wasi_file", field: None, ty: Instance(0) }
         | 69 5f 66 69
         | 6c 65 00 ff
         | 06 00      
  0x0058 | 01 04       | type section
  0x005a | 01          | 1 count
  0x005b | 60 00 00    | [type 1] Func(FuncType { params: [], returns: [] })
  0x005e | 03 02       | func section
  0x0060 | 01          | 1 count
  0x0061 | 01          | [func 0] type 1
  0x0062 | 07 08       | export section
  0x0064 | 01          | 1 count
  0x0065 | 04 70 6c 61 | export Export { field: "play", kind: Function, index: 0 }
         | 79 00 00   
  0x006c | 0a 04       | code section
  0x006e | 01          | 1 count
============== func 0 ====================
  0x006f | 02          | size of function
  0x0070 | 00          | 0 local blocks
  0x0071 | 0b          | End
  0x0072 | 00 16 04 6e | custom section: "name"
         | 61 6d 65   
  0x0079 | 00 06       | module name
  0x007b | 05 43 48 49 | "CHILD"
         | 4c 44      
  0x0081 | 01 07       | function names
  0x0083 | 01          | 1 count
  0x0084 | 00 04 70 6c | Naming { index: 0, name: "play" }
         | 61 79      
0x008a | 61          | inline module size
  0x008b | 00 61 73 6d | version 1
         | 01 00 00 00
  0x0093 | 10 04       | alias section
  0x0095 | 01          | 1 count
  0x0096 | 01 07 01    | [alias] ParentType(1)
  0x0099 | 02 0f       | import section
  0x009b | 01          | 1 count
  0x009c | 09 77 61 73 | import [instance 0] Import { module: "wasi_file", field: None, ty: Instance(0) }
         | 69 5f 66 69
         | 6c 65 00 ff
         | 06 00      
  0x00aa | 01 08       | type section
  0x00ac | 01          | 1 count
  0x00ad | 60 03 7f 7f | [type 1] Func(FuncType { params: [I32, I32, I32], returns: [I32] })
         | 7f 01 7f   
  0x00b4 | 03 03       | func section
  0x00b6 | 02          | 2 count
  0x00b7 | 01          | [func 0] type 1
  0x00b8 | 01          | [func 1] type 1
  0x00b9 | 07 10       | export section
  0x00bb | 02          | 2 count
  0x00bc | 04 72 65 61 | export Export { field: "read", kind: Function, index: 0 }
         | 64 00 00   
  0x00c3 | 05 77 72 69 | export Export { field: "write", kind: Function, index: 1 }
         | 74 65 00 01
  0x00cb | 0a 0b       | code section
  0x00cd | 02          | 2 count
============== func 0 ====================
  0x00ce | 04          | size of function
  0x00cf | 00          | 0 local blocks
  0x00d0 | 41 00       | I32Const { value: 0 }
  0x00d2 | 0b          | End
============== func 1 ====================
  0x00d3 | 04          | size of function
  0x00d4 | 00          | 0 local blocks
  0x00d5 | 41 00       | I32Const { value: 0 }
  0x00d7 | 0b          | End
  0x00d8 | 00 12 04 6e | custom section: "name"
         | 61 6d 65   
  0x00df | 00 0b       | module name
  0x00e1 | 0a 56 49 52 | "VIRTUALIZE"
         | 54 55 41 4c
         | 49 5a 45   
0x00ec | 0f 21       | instance section
0x00ee | 02          | 2 count
0x00ef | 00 01       | [instance 1] instantiate module:1
0x00f1 | 01          | 1 count
0x00f2 | 09 77 61 73 | [instantiate arg] InstanceArg { name: "wasi_file", field: None, kind: Instance, index: 0 }
       | 69 5f 66 69
       | 6c 65 00 06
       | 00         
0x00ff | 00 00       | [instance 2] instantiate module:0
0x0101 | 01          | 1 count
0x0102 | 09 77 61 73 | [instantiate arg] InstanceArg { name: "wasi_file", field: None, kind: Instance, index: 1 }
       | 69 5f 66 69
       | 6c 65 00 06
       | 01         
0x010f | 10 09       | alias section
0x0111 | 01          | 1 count
0x0112 | 00 02 00 04 | [alias] InstanceExport { instance: 2, kind: Function, export: "play" }
       | 70 6c 61 79
0x011a | 01 04       | type section
0x011c | 01          | 1 count
0x011d | 60 00 00    | [type 2] Func(FuncType { params: [], returns: [] })
0x0120 | 03 02       | func section
0x0122 | 01          | 1 count
0x0123 | 02          | [func 1] type 2
0x0124 | 07 08       | export section
0x0126 | 01          | 1 count
0x0127 | 04 77 6f 72 | export Export { field: "work", kind: Function, index: 1 }
       | 6b 00 01   
0x012e | 0a 06       | code section
0x0130 | 01          | 1 count
============== func 1 ====================
0x0131 | 04          | size of function
0x0132 | 00          | 0 local blocks
0x0133 | 10 00       | Call { function_index: 0 }
0x0135 | 0b          | End
0x0136 | 00 15 04 6e | custom section: "name"
       | 61 6d 65   
0x013d | 01 0e       | function names
0x013f | 01          | 1 count
0x0140 | 00 0b 63 68 | Naming { index: 0, name: "child.$play" }
       | 69 6c 64 2e
       | 24 70 6c 61
       | 79         
