  0x0 | 00 61 73 6d | version 65546 (Component)
      | 0a 00 01 00
  0x8 | 04 2e       | [component 0] inline size
    0xa | 00 61 73 6d | version 65546 (Component)
        | 0a 00 01 00
   0x12 | 01 08       | [core module 0] inline size
     0x14 | 00 61 73 6d | version 1 (Module)
          | 01 00 00 00
   0x1c | 0b 05       | component export section
   0x1e | 01          | 1 count
   0x1f | 00 00 11 00 | export ComponentExport { name: "", kind: Module, index: 0 }
   0x23 | 00 13       | custom section
   0x25 | 0e 63 6f 6d | name: "component-name"
        | 70 6f 6e 65
        | 6e 74 2d 6e
        | 61 6d 65   
   0x34 | 00 02       | component name
   0x36 | 01 63       | "c"
 0x38 | 04 31       | [component 1] inline size
   0x3a | 00 61 73 6d | version 65546 (Component)
        | 0a 00 01 00
   0x42 | 07 0b       | component type section
   0x44 | 01          | 1 count
   0x45 | 41 02 00 50 | [type 0] Component([CoreType(Module([])), Import(ComponentImport { name: "", ty: Module(0) })])
        | 00 03 00 00
        | 11 00      
   0x4f | 0a 04       | component import section
   0x51 | 01          | 1 count
   0x52 | 00 04 00    | [component 0] ComponentImport { name: "", ty: Component(0) }
   0x55 | 00 14       | custom section
   0x57 | 0e 63 6f 6d | name: "component-name"
        | 70 6f 6e 65
        | 6e 74 2d 6e
        | 61 6d 65   
   0x66 | 00 03       | component name
   0x68 | 02 63 32    | "c2"
 0x6b | 05 04       | component instance section
 0x6d | 01          | 1 count
 0x6e | 00 00 00    | [instance 0] Instantiate { component_index: 0, args: [] }
 0x71 | 06 06       | component alias section
 0x73 | 01          | 1 count
 0x74 | 00 11 00 00 | alias [module 0] InstanceExport { kind: Module, instance_index: 0, name: "" }
      | 00         
 0x79 | 05 0d       | component instance section
 0x7b | 02          | 2 count
 0x7c | 01 01 00 00 | [instance 1] FromExports([ComponentExport { name: "", kind: Module, index: 0 }])
      | 11 00      
 0x82 | 00 01 01 00 | [instance 2] Instantiate { component_index: 1, args: [ComponentInstantiationArg { name: "", kind: Instance, index: 1 }] }
      | 05 01      
 0x88 | 00 29       | custom section
 0x8a | 0e 63 6f 6d | name: "component-name"
      | 70 6f 6e 65
      | 6e 74 2d 6e
      | 61 6d 65   
 0x99 | 01 06 00 11 | core module section
 0x9d | 01          | 1 count
 0x9e | 00 01 6d    | Naming { index: 0, name: "m" }
 0xa1 | 01 09 04    | component section
 0xa4 | 02          | 2 count
 0xa5 | 00 01 63    | Naming { index: 0, name: "c" }
 0xa8 | 01 02 63 32 | Naming { index: 1, name: "c2" }
 0xac | 01 05 05    | instance section
 0xaf | 01          | 1 count
 0xb0 | 00 01 43    | Naming { index: 0, name: "C" }
