  0x0 | 00 61 73 6d | version 65546 (Component)
      | 0a 00 01 00
  0x8 | 07 2b       | component type section
  0xa | 01          | 1 count
  0xb | 42 09 00 50 | [type 0] Instance([CoreType(Module([])), Export { name: "1", ty: Module(0) }, Type(Func(ComponentFuncType { params: [], results: Named([]) })), Export { name: "2", ty: Func(0) }, Export { name: "3", ty: Value(Primitive(String)) }, Type(Instance([])), Export { name: "4", ty: Instance(1) }, Type(Component([])), Export { name: "5", ty: Component(2) }])
      | 00 04 01 31
      | 00 11 00 01
      | 40 00 01 00
      | 04 01 32 01
      | 00 04 01 33
      | 02 73 01 42
      | 00 04 01 34
      | 05 01 01 41
      | 00 04 01 35
      | 04 02      
 0x35 | 0a 04       | component import section
 0x37 | 01          | 1 count
 0x38 | 00 05 00    | [instance 0] ComponentImport { name: "", ty: Instance(0) }
 0x3b | 04 3f       | [component 0] inline size
   0x3d | 00 61 73 6d | version 65546 (Component)
        | 0a 00 01 00
   0x45 | 03 03       | core type section
   0x47 | 01          | 1 count
   0x48 | 50 00       | [core type 0] Module([])
   0x4a | 0a 06       | component import section
   0x4c | 01          | 1 count
   0x4d | 01 31 00 11 | [module 0] ComponentImport { name: "1", ty: Module(0) }
        | 00         
   0x52 | 07 05       | component type section
   0x54 | 01          | 1 count
   0x55 | 40 00 01 00 | [type 0] Func(ComponentFuncType { params: [], results: Named([]) })
   0x59 | 0a 09       | component import section
   0x5b | 02          | 2 count
   0x5c | 01 32 01 00 | [func 0] ComponentImport { name: "2", ty: Func(0) }
   0x60 | 01 33 02 73 | [value 0] ComponentImport { name: "3", ty: Value(Primitive(String)) }
   0x64 | 07 03       | component type section
   0x66 | 01          | 1 count
   0x67 | 42 00       | [type 1] Instance([])
   0x69 | 0a 05       | component import section
   0x6b | 01          | 1 count
   0x6c | 01 34 05 01 | [instance 0] ComponentImport { name: "4", ty: Instance(1) }
   0x70 | 07 03       | component type section
   0x72 | 01          | 1 count
   0x73 | 41 00       | [type 2] Component([])
   0x75 | 0a 05       | component import section
   0x77 | 01          | 1 count
   0x78 | 01 35 04 02 | [component 0] ComponentImport { name: "5", ty: Component(2) }
 0x7c | 06 1b       | component alias section
 0x7e | 05          | 5 count
 0x7f | 00 11 00 00 | alias [module 0] InstanceExport { kind: Module, instance_index: 0, name: "1" }
      | 01 31      
 0x85 | 01 00 00 01 | alias [func 0] InstanceExport { kind: Func, instance_index: 0, name: "2" }
      | 32         
 0x8a | 02 00 00 01 | alias [value 0] InstanceExport { kind: Value, instance_index: 0, name: "4" }
      | 34         
 0x8f | 05 00 00 01 | alias [instance 1] InstanceExport { kind: Instance, instance_index: 0, name: "3" }
      | 33         
 0x94 | 04 00 00 01 | alias [component 1] InstanceExport { kind: Component, instance_index: 0, name: "5" }
      | 35         
 0x99 | 05 19       | component instance section
 0x9b | 01          | 1 count
 0x9c | 00 00 05 01 | [instance 2] Instantiate { component_index: 0, args: [ComponentInstantiationArg { name: "1", kind: Module, index: 0 }, ComponentInstantiationArg { name: "2", kind: Func, index: 0 }, ComponentInstantiationArg { name: "3", kind: Value, index: 0 }, ComponentInstantiationArg { name: "4", kind: Instance, index: 1 }, ComponentInstantiationArg { name: "5", kind: Component, index: 1 }] }
      | 31 00 11 00
      | 01 32 01 00
      | 01 33 02 00
      | 01 34 05 01
      | 01 35 04 01
