  0x0 | 00 61 73 6d | version 65546 (Component)
      | 0a 00 01 00
  0x8 | 04 30       | [component 0] inline size
    0xa | 00 61 73 6d | version 65546 (Component)
        | 0a 00 01 00
   0x12 | 01 08       | [core module 0] inline size
     0x14 | 00 61 73 6d | version 1 (Module)
          | 01 00 00 00
   0x1c | 0b 07       | component export section
   0x1e | 01          | 1 count
   0x1f | 01 65 00 00 | export ComponentExport { name: "e", url: "", kind: Module, index: 0 }
        | 11 00      
   0x25 | 00 13       | custom section
   0x27 | 0e 63 6f 6d | name: "component-name"
        | 70 6f 6e 65
        | 6e 74 2d 6e
        | 61 6d 65   
   0x36 | 00 02       | component name
   0x38 | 01 63       | "c"
 0x3a | 04 35       | [component 1] inline size
   0x3c | 00 61 73 6d | version 65546 (Component)
        | 0a 00 01 00
   0x44 | 07 0d       | component type section
   0x46 | 01          | 1 count
   0x47 | 41 02 00 50 | [type 0] Component([CoreType(Module([])), Import(ComponentImport { name: "i", url: "", ty: Module(0) })])
        | 00 03 01 69
        | 00 00 11 00
   0x53 | 0a 06       | component import section
   0x55 | 01          | 1 count
   0x56 | 01 69 00 04 | [component 0] ComponentImport { name: "i", url: "", ty: Component(0) }
        | 00         
   0x5b | 00 14       | custom section
   0x5d | 0e 63 6f 6d | name: "component-name"
        | 70 6f 6e 65
        | 6e 74 2d 6e
        | 61 6d 65   
   0x6c | 00 03       | component name
   0x6e | 02 63 32    | "c2"
 0x71 | 05 04       | component instance section
 0x73 | 01          | 1 count
 0x74 | 00 00 00    | [instance 0] Instantiate { component_index: 0, args: [] }
 0x77 | 06 07       | component alias section
 0x79 | 01          | 1 count
 0x7a | 00 11 00 00 | alias [module 0] InstanceExport { kind: Module, instance_index: 0, name: "e" }
      | 01 65      
 0x80 | 05 0f       | component instance section
 0x82 | 02          | 2 count
 0x83 | 01 01 01 65 | [instance 1] FromExports([ComponentExport { name: "e", url: "", kind: Module, index: 0 }])
      | 00 11 00   
 0x8a | 00 01 01 01 | [instance 2] Instantiate { component_index: 1, args: [ComponentInstantiationArg { name: "i", kind: Instance, index: 1 }] }
      | 69 05 01   
 0x91 | 00 29       | custom section
 0x93 | 0e 63 6f 6d | name: "component-name"
      | 70 6f 6e 65
      | 6e 74 2d 6e
      | 61 6d 65   
 0xa2 | 01 06 00 11 | core module section
 0xa6 | 01          | 1 count
 0xa7 | 00 01 6d    | Naming { index: 0, name: "m" }
 0xaa | 01 09 04    | component section
 0xad | 02          | 2 count
 0xae | 00 01 63    | Naming { index: 0, name: "c" }
 0xb1 | 01 02 63 32 | Naming { index: 1, name: "c2" }
 0xb5 | 01 05 05    | instance section
 0xb8 | 01          | 1 count
 0xb9 | 00 01 43    | Naming { index: 0, name: "C" }
