  0x0 | 00 61 73 6d | version 65546 (Component)
      | 0a 00 01 00
  0x8 | 07 27       | component type section
  0xa | 01          | 1 count
  0xb | 42 03 01 40 | [type 0] Instance([Type(Func(ComponentFuncType { params: Named([]), results: Named([]) })), Type(Component([Type(Func(ComponentFuncType { params: Named([]), results: Named([]) })), Alias(Outer { kind: Type, count: 1, index: 0 }), Import(ComponentImport { name: "1", ty: Func(0) }), Export { name: "1", ty: Func(1) }])), Export { name: "c5", ty: Component(1) }])
      | 01 00 01 00
      | 01 41 04 01
      | 40 01 00 01
      | 00 02 03 02
      | 01 00 03 01
      | 31 01 00 04
      | 01 31 01 01
      | 04 02 63 35
      | 04 01      
