  0x0 | 00 61 73 6d | version 65546 (Component)
      | 0a 00 01 00
  0x8 | 08 2c       | component type section
  0xa | 01          | 1 count
  0xb | 42 09 00 50 | [type 0] Instance([CoreType(Module([])), Export { name: "1", ty: Module(0) }, Type(Func(ComponentFuncType { params: Named([]), results: Named([]) })), Export { name: "2", ty: Func(0) }, Export { name: "3", ty: Value(Primitive(String)) }, Type(Instance([])), Export { name: "4", ty: Instance(1) }, Type(Component([])), Export { name: "5", ty: Component(2) }])
      | 00 04 01 31
      | 00 11 00 01
      | 40 01 00 01
      | 00 04 01 32
      | 01 00 04 01
      | 33 02 73 01
      | 42 00 04 01
      | 34 05 01 01
      | 41 00 04 01
      | 35 04 02   
 0x36 | 0b 04       | component import section
 0x38 | 01          | 1 count
 0x39 | 00 05 00    | [instance 0] ComponentImport { name: "", ty: Instance(0) }
 0x3c | 05 40       | [component 0] inline size
   0x3e | 00 61 73 6d | version 65546 (Component)
        | 0a 00 01 00
   0x46 | 04 03       | core type section
   0x48 | 01          | 1 count
   0x49 | 50 00       | [core type 0] Module([])
   0x4b | 0b 06       | component import section
   0x4d | 01          | 1 count
   0x4e | 01 31 00 11 | [module 0] ComponentImport { name: "1", ty: Module(0) }
        | 00         
   0x53 | 08 06       | component type section
   0x55 | 01          | 1 count
   0x56 | 40 01 00 01 | [type 0] Func(ComponentFuncType { params: Named([]), results: Named([]) })
        | 00         
   0x5b | 0b 09       | component import section
   0x5d | 02          | 2 count
   0x5e | 01 32 01 00 | [func 0] ComponentImport { name: "2", ty: Func(0) }
   0x62 | 01 33 02 73 | [value 0] ComponentImport { name: "3", ty: Value(Primitive(String)) }
   0x66 | 08 03       | component type section
   0x68 | 01          | 1 count
   0x69 | 42 00       | [type 1] Instance([])
   0x6b | 0b 05       | component import section
   0x6d | 01          | 1 count
   0x6e | 01 34 05 01 | [instance 0] ComponentImport { name: "4", ty: Instance(1) }
   0x72 | 08 03       | component type section
   0x74 | 01          | 1 count
   0x75 | 41 00       | [type 2] Component([])
   0x77 | 0b 05       | component import section
   0x79 | 01          | 1 count
   0x7a | 01 35 04 02 | [component 0] ComponentImport { name: "5", ty: Component(2) }
 0x7e | 07 1b       | component alias section
 0x80 | 05          | 5 count
 0x81 | 00 11 00 00 | alias [module 0] InstanceExport { kind: Module, instance_index: 0, name: "1" }
      | 01 31      
 0x87 | 01 00 00 01 | alias [func 0] InstanceExport { kind: Func, instance_index: 0, name: "2" }
      | 32         
 0x8c | 02 00 00 01 | alias [value 0] InstanceExport { kind: Value, instance_index: 0, name: "4" }
      | 34         
 0x91 | 05 00 00 01 | alias [instance 1] InstanceExport { kind: Instance, instance_index: 0, name: "3" }
      | 33         
 0x96 | 04 00 00 01 | alias [component 1] InstanceExport { kind: Component, instance_index: 0, name: "5" }
      | 35         
 0x9b | 06 19       | component instance section
 0x9d | 01          | 1 count
 0x9e | 00 00 05 01 | [instance 2] Instantiate { component_index: 0, args: [ComponentInstantiationArg { name: "1", kind: Module, index: 0 }, ComponentInstantiationArg { name: "2", kind: Func, index: 0 }, ComponentInstantiationArg { name: "3", kind: Value, index: 0 }, ComponentInstantiationArg { name: "4", kind: Instance, index: 1 }, ComponentInstantiationArg { name: "5", kind: Component, index: 1 }] }
      | 31 00 11 00
      | 01 32 01 00
      | 01 33 02 00
      | 01 34 05 01
      | 01 35 04 01
