  0x0 | 00 61 73 6d | version 65546 (Component)
      | 0a 00 01 00
  0x8 | 08 03       | component type section
  0xa | 01          | 1 count
  0xb | 41 00       | [type 0] Component([])
  0xd | 0b 04       | component import section
  0xf | 01          | 1 count
 0x10 | 00 04 00    | [component 0] ComponentImport { name: "", ty: Component(0) }
 0x13 | 04 03       | core type section
 0x15 | 01          | 1 count
 0x16 | 50 00       | [core type 0] Module([])
 0x18 | 0b 05       | component import section
 0x1a | 01          | 1 count
 0x1b | 00 00 11 00 | [module 0] ComponentImport { name: "", ty: Module(0) }
 0x1f | 08 03       | component type section
 0x21 | 01          | 1 count
 0x22 | 42 00       | [type 1] Instance([])
 0x24 | 0b 04       | component import section
 0x26 | 01          | 1 count
 0x27 | 00 05 01    | [instance 0] ComponentImport { name: "", ty: Instance(1) }
 0x2a | 08 06       | component type section
 0x2c | 01          | 1 count
 0x2d | 40 01 00 01 | [type 2] Func(ComponentFuncType { params: Named([]), results: Named([]) })
      | 00         
 0x32 | 0b 04       | component import section
 0x34 | 01          | 1 count
 0x35 | 00 01 02    | [func 0] ComponentImport { name: "", ty: Func(2) }
