  0x0 | 00 61 73 6d | version 65546 (Component)
      | 0a 00 01 00
  0x8 | 01 20       | type section
  0xa | 01          | 1 count
  0xb | 4d 03 01 4c | [type 0] Instance([Type(Function(ComponentFuncType { params: [], result: Primitive(Unit) })), Type(Component([Type(Function(ComponentFuncType { params: [], result: Primitive(Unit) })), OuterType { count: 1, index: 0 }, Import(ComponentImport { name: "1", ty: 0 }), Export { name: "1", ty: 1 }])), Export { name: "c5", ty: 1 }])
      | 00 7f 01 4e
      | 04 01 4c 00
      | 7f 09 02 05
      | 01 00 02 01
      | 31 00 07 01
      | 31 01 07 02
      | 63 35 01   
