  0x0 | 00 61 73 6d | version 65546 (Component)
      | 0a 00 01 00
  0x8 | 08 03       | component type section
  0xa | 01          | 1 count
  0xb | 41 00       | [type 0] Component([])
  0xd | 0b 04       | component import section
  0xf | 01          | 1 count
 0x10 | 00 04 00    | [component 0] ComponentImport { name: "", ty: Component(0) }
 0x13 | 04 03       | core type section
 0x15 | 01          | 1 count
 0x16 | 50 00       | [core type 0] Module([])
 0x18 | 0b 06       | component import section
 0x1a | 01          | 1 count
 0x1b | 01 61 00 11 | [module 0] ComponentImport { name: "a", ty: Module(0) }
      | 00         
 0x20 | 0c 09       | component export section
 0x22 | 02          | 2 count
 0x23 | 00 04 00    | export ComponentExport { name: "", kind: Component, index: 0 }
 0x26 | 01 61 00 11 | export ComponentExport { name: "a", kind: Module, index: 0 }
      | 00         
