  0x0 | 00 61 73 6d | version 65546 (Component)
      | 0a 00 01 00
  0x8 | 01 03       | type section
  0xa | 01          | 1 count
  0xb | 4e 00       | [type 0] Component([])
  0xd | 02 03       | import section
  0xf | 01          | 1 count
 0x10 | 00 00       | [component 0] ComponentImport { name: "", ty: 0 }
 0x12 | 01 03       | type section
 0x14 | 01          | 1 count
 0x15 | 4f 00       | [type 1] Module([])
 0x17 | 02 04       | import section
 0x19 | 01          | 1 count
 0x1a | 01 61 01    | [module 0] ComponentImport { name: "a", ty: 1 }
 0x1d | 07 08       | component-export section
 0x1f | 02          | 2 count
 0x20 | 00 01 00    | export ComponentExport { name: "", kind: Component(0) }
 0x23 | 01 61 00 00 | export ComponentExport { name: "a", kind: Module(0) }
