  0x0 | 00 61 73 6d | version 65546 (Component)
      | 0a 00 01 00
  0x8 | 05 19       | [component 0] inline size
    0xa | 00 61 73 6d | version 65546 (Component)
        | 0a 00 01 00
   0x12 | 01 08       | [core module 0] inline size
     0x14 | 00 61 73 6d | version 1 (Module)
          | 01 00 00 00
   0x1c | 0c 05       | component export section
   0x1e | 01          | 1 count
   0x1f | 00 00 11 00 | export ComponentExport { name: "", kind: Module, index: 0 }
 0x23 | 05 1b       | [component 1] inline size
   0x25 | 00 61 73 6d | version 65546 (Component)
        | 0a 00 01 00
   0x2d | 08 0b       | component type section
   0x2f | 01          | 1 count
   0x30 | 41 02 00 50 | [type 0] Component([CoreType(Module([])), Import(ComponentImport { name: "", ty: Module(0) })])
        | 00 03 00 00
        | 11 00      
   0x3a | 0b 04       | component import section
   0x3c | 01          | 1 count
   0x3d | 00 04 00    | [component 0] ComponentImport { name: "", ty: Component(0) }
 0x40 | 06 04       | component instance section
 0x42 | 01          | 1 count
 0x43 | 00 00 00    | [instance 0] Instantiate { component_index: 0, args: [] }
 0x46 | 07 06       | component alias section
 0x48 | 01          | 1 count
 0x49 | 00 11 00 00 | alias [module 0] InstanceExport { kind: Module, instance_index: 0, name: "" }
      | 00         
 0x4e | 06 0d       | component instance section
 0x50 | 02          | 2 count
 0x51 | 01 01 00 00 | [instance 1] FromExports([ComponentExport { name: "", kind: Module, index: 0 }])
      | 11 00      
 0x57 | 00 01 01 00 | [instance 2] Instantiate { component_index: 1, args: [ComponentInstantiationArg { name: "", kind: Instance, index: 1 }] }
      | 05 01      
