0x0000 | 00 61 73 6d | version 1
       | 01 00 00 00
0x0008 | 01 0c       | type section
0x000a | 02          | 2 count
0x000b | 61 00 00    | [type 0] Module(ModuleType { imports: [], exports: [] })
0x000e | 61 01 00 00 | [type 1] Module(ModuleType { imports: [Import { module: "", field: None, ty: Module(0) }], exports: [] })
       | ff 05 00 00
0x0016 | 02 06       | import section
0x0018 | 01          | 1 count
0x0019 | 00 00 ff 05 | import [module 0] Import { module: "", field: None, ty: Module(1) }
       | 01         
0x001e | 01 0c       | type section
0x0020 | 02          | 2 count
0x0021 | 60 00 00    | [type 2] Func(FuncType { params: [], returns: [] })
0x0024 | 61 01 00 00 | [type 3] Module(ModuleType { imports: [Import { module: "", field: None, ty: Function(2) }], exports: [] })
       | ff 00 02 00
0x002c | 02 06       | import section
0x002e | 01          | 1 count
0x002f | 00 00 ff 05 | import [module 1] Import { module: "", field: None, ty: Module(3) }
       | 03         
0x0034 | 0f 07       | instance section
0x0036 | 01          | 1 count
0x0037 | 00 00       | [instance 0] instantiate module:0
0x0039 | 01          | 1 count
0x003a | 00 05 01    | [instantiate arg] InstanceArg { name: "", kind: Module, index: 1 }
