  0x0 | 00 61 73 6d | version 65546 (Component)
      | 0a 00 01 00
  0x8 | 07 03       | component type section
  0xa | 01          | 1 count
  0xb | 41 00       | [type 0] Component([])
  0xd | 0a 05       | component import section
  0xf | 01          | 1 count
 0x10 | 01 61 04 00 | [component 0] ComponentImport { name: "a", ty: Component(0) }
 0x14 | 07 05       | component type section
 0x16 | 01          | 1 count
 0x17 | 40 00 01 00 | [type 1] Func(ComponentFuncType { params: [], results: Named([]) })
 0x1b | 0a 05       | component import section
 0x1d | 01          | 1 count
 0x1e | 01 66 01 01 | [func 0] ComponentImport { name: "f", ty: Func(1) }
 0x22 | 05 08       | component instance section
 0x24 | 01          | 1 count
 0x25 | 00 00 01 01 | [instance 0] Instantiate { component_index: 0, args: [ComponentInstantiationArg { name: "a", kind: Func, index: 0 }] }
      | 61 01 00   
 0x2c | 00 24       | custom section
 0x2e | 0e 63 6f 6d | name: "component-name"
      | 70 6f 6e 65
      | 6e 74 2d 6e
      | 61 6d 65   
 0x3d | 01 05 01    | func section
 0x40 | 01          | 1 count
 0x41 | 00 01 66    | Naming { index: 0, name: "f" }
 0x44 | 01 05 04    | component section
 0x47 | 01          | 1 count
 0x48 | 00 01 63    | Naming { index: 0, name: "c" }
 0x4b | 01 05 05    | instance section
 0x4e | 01          | 1 count
 0x4f | 00 01 61    | Naming { index: 0, name: "a" }
