  0x0 | 00 61 73 6d | version 65546 (Component)
      | 0a 00 01 00
  0x8 | 08 0b       | component type section
  0xa | 01          | 1 count
  0xb | 41 02 01 40 | [type 0] Component([Type(Func(ComponentFuncType { params: [], result: Primitive(Unit) })), Import(ComponentImport { name: "", ty: Func(0) })])
      | 00 7f 03 00
      | 01 00      
 0x15 | 0b 04       | component import section
 0x17 | 01          | 1 count
 0x18 | 00 04 00    | [component 0] ComponentImport { name: "", ty: Component(0) }
 0x1b | 06 04       | component instance section
 0x1d | 01          | 1 count
 0x1e | 00 00 00    | [instance 0] Instantiate { component_index: 0, args: [] }
