  0x0 | 00 61 73 6d | version 65546 (Component)
      | 0a 00 01 00
  0x8 | 07 0c       | component type section
  0xa | 01          | 1 count
  0xb | 41 02 01 40 | [type 0] Component([Type(Func(ComponentFuncType { params: [], results: Named([]) })), Import(ComponentImport { name: "", ty: Func(0) })])
      | 00 01 00 03
      | 00 01 00   
 0x16 | 0a 04       | component import section
 0x18 | 01          | 1 count
 0x19 | 00 04 00    | [component 0] ComponentImport { name: "", ty: Component(0) }
 0x1c | 05 04       | component instance section
 0x1e | 01          | 1 count
 0x1f | 00 00 00    | [instance 0] Instantiate { component_index: 0, args: [] }
