0x0000 | 00 61 73 6d | version 1
       | 01 00 00 00
0x0008 | 01 0c       | section Type
0x000a | 02          | 2 count
0x000b | 60 00 00    | [type 0] Func(FuncType { params: [], returns: [] })
0x000e | 61 01 00 01 | [type 1] Module(ModuleType { imports: [Import { module: "", field: None, ty: Function(0) }], exports: [] })
       | c0 00 00 00
0x0016 | 02 06       | section Import
0x0018 | 01          | 1 count
0x0019 | 00 01 c0 05 | import [module 0] Import { module: "", field: None, ty: Module(1) }
       | 01         
0x001e | 65 03       | section Instance
0x0020 | 01          | 1 count
0x0021 | 00          | [instance 0] module:0
0x0022 | 00          | 0 count
