0x0000 | 00 61 73 6d | version 1
       | 01 00 00 00
0x0008 | 01 04       | type section
0x000a | 01          | 1 count
0x000b | 61 00 00    | [type 0] Module(ModuleType { imports: [], exports: [] })
0x000e | 02 0d       | import section
0x0010 | 02          | 2 count
0x0011 | 01 61 00 ff | import [module 0] Import { module: "a", field: None, ty: Module(0) }
       | 05 00      
0x0017 | 01 62 00 ff | import [module 1] Import { module: "b", field: None, ty: Module(0) }
       | 05 00      
0x001d | 01 03       | type section
0x001f | 01          | 1 count
0x0020 | 62 00       | [type 1] Instance(InstanceType { exports: [] })
0x0022 | 02 07       | import section
0x0024 | 01          | 1 count
0x0025 | 01 63 00 ff | import [instance 0] Import { module: "c", field: None, ty: Instance(1) }
       | 06 01      
0x002b | 0f 22       | instance section
0x002d | 01          | 1 count
0x002e | 00 00       | [instance 1] instantiate module:0
0x0030 | 06          | 6 count
0x0031 | 01 61 00 05 | [instantiate arg] InstanceArg { name: "a", field: None, kind: Module, index: 1 }
       | 01         
0x0036 | 01 62 00 00 | [instantiate arg] InstanceArg { name: "b", field: None, kind: Function, index: 0 }
       | 00         
0x003b | 01 63 00 03 | [instantiate arg] InstanceArg { name: "c", field: None, kind: Global, index: 0 }
       | 00         
0x0040 | 01 64 00 06 | [instantiate arg] InstanceArg { name: "d", field: None, kind: Instance, index: 0 }
       | 00         
0x0045 | 01 65 00 02 | [instantiate arg] InstanceArg { name: "e", field: None, kind: Memory, index: 0 }
       | 00         
0x004a | 01 66 00 01 | [instantiate arg] InstanceArg { name: "f", field: None, kind: Table, index: 0 }
       | 00         
0x004f | 01 04       | type section
0x0051 | 01          | 1 count
0x0052 | 60 00 00    | [type 2] Func(FuncType { params: [], returns: [] })
0x0055 | 03 02       | func section
0x0057 | 01          | 1 count
0x0058 | 02          | [func 0] type 2
0x0059 | 04 04       | table section
0x005b | 01          | 1 count
0x005c | 70 00 01    | [table 0] TableType { element_type: FuncRef, limits: ResizableLimits { initial: 1, maximum: None } }
0x005f | 05 03       | memory section
0x0061 | 01          | 1 count
0x0062 | 00 01       | [memory 0] M32 { limits: ResizableLimits { initial: 1, maximum: None }, shared: false }
0x0064 | 06 06       | global section
0x0066 | 01          | 1 count
0x0067 | 7f 00       | [global 0] GlobalType { content_type: I32, mutable: false }
0x0069 | 41 00       | I32Const { value: 0 }
0x006b | 0b          | End
0x006c | 0a 04       | code section
0x006e | 01          | 1 count
============== func 0 ====================
0x006f | 02          | size of function
0x0070 | 00          | 0 local blocks
0x0071 | 0b          | End
0x0072 | 00 0b 04 6e | custom section: "name"
       | 61 6d 65   
0x0079 | 01 04       | function names
0x007b | 01          | 1 count
0x007c | 00 01 66    | Naming { index: 0, name: "f" }
