  0x0 | 00 61 73 6d | version 65546 (Component)
      | 0a 00 01 00
  0x8 | 08 0b       | component type section
  0xa | 01          | 1 count
  0xb | 42 02 01 40 | [type 0] Instance([Type(Func(ComponentFuncType { params: [], result: Primitive(Unit) })), Export { name: "", ty: Func(0) }])
      | 00 7f 04 00
      | 01 00      
 0x15 | 0b 04       | component import section
 0x17 | 01          | 1 count
 0x18 | 00 05 00    | [instance 0] ComponentImport { name: "", ty: Instance(0) }
