  0x0 | 00 61 73 6d | version 65546 (Component)
      | 0a 00 01 00
  0x8 | 08 16       | component type section
  0xa | 04          | 4 count
  0xb | 42 00       | [type 0] Instance([])
  0xd | 42 01 04 00 | [type 1] Instance([Export { name: "", ty: Instance(0) }])
      | 05 00      
 0x13 | 42 00       | [type 2] Instance([])
 0x15 | 42 02 02 03 | [type 3] Instance([Alias(Outer { kind: Type, count: 1, index: 2 }), Export { name: "", ty: Instance(0) }])
      | 01 01 02 04
      | 00 05 00   
