  0x0 | 00 61 73 6d | version 65546 (Component)
      | 0a 00 01 00
  0x8 | 07 16       | component type section
  0xa | 04          | 4 count
  0xb | 42 00       | [type 0] Instance([])
  0xd | 42 01 04 00 | [type 1] Instance([Export { name: "", ty: Instance(0) }])
      | 05 00      
 0x13 | 42 00       | [type 2] Instance([])
 0x15 | 42 02 02 03 | [type 3] Instance([Alias(Outer { kind: Type, count: 1, index: 2 }), Export { name: "", ty: Instance(0) }])
      | 02 01 02 04
      | 00 05 00   
 0x20 | 00 16       | custom section
 0x22 | 0e 63 6f 6d | name: "component-name"
      | 70 6f 6e 65
      | 6e 74 2d 6e
      | 61 6d 65   
 0x31 | 01 05 03    | type section
 0x34 | 01          | 1 count
 0x35 | 02 01 78    | Naming { index: 2, name: "x" }
