0x0000 | 00 61 73 6d | version 1
       | 01 00 00 00
0x0008 | 01 09       | type section
0x000a | 02          | 2 count
0x000b | 60 00 00    | [type 0] Func(FuncType { params: [], returns: [] })
0x000e | 62 01 00 00 | [type 1] Instance(InstanceType { exports: [ExportType { name: "", ty: Function(0) }] })
       | 00         
0x0013 | 02 06       | import section
0x0015 | 01          | 1 count
0x0016 | 00 00 ff 06 | import [instance 0] Import { module: "", field: None, ty: Instance(1) }
       | 01         
