  0x0 | 00 61 73 6d | version 65546 (Component)
      | 0a 00 01 00
  0x8 | 08 16       | component type section
  0xa | 02          | 2 count
  0xb | 42 02 01 40 | [type 0] Instance([Type(Func(ComponentFuncType { params: Named([]), results: Named([]) })), Export { name: "", ty: Func(0) }])
      | 01 00 01 00
      | 04 00 01 00
 0x17 | 42 02 01 42 | [type 1] Instance([Type(Instance([])), Export { name: "", ty: Instance(0) }])
      | 00 04 00 05
      | 00         
