0x0000 | 00 61 73 6d | version 1
       | 01 00 00 00
0x0008 | 01 0f       | type section
0x000a | 04          | 4 count
0x000b | 62 00       | [type 0] Instance(InstanceType { exports: [] })
0x000d | 62 01 00 06 | [type 1] Instance(InstanceType { exports: [ExportType { name: "", ty: Instance(0) }] })
       | 00         
0x0012 | 62 00       | [type 2] Instance(InstanceType { exports: [] })
0x0014 | 62 01 00 06 | [type 3] Instance(InstanceType { exports: [ExportType { name: "", ty: Instance(2) }] })
       | 02         
0x0019 | 00 0b       | custom section
0x001b | 04 6e 61 6d | name: "name"
       | 65         
0x0020 | 04 04       | type names
0x0022 | 01          | 1 count
0x0023 | 02 01 78    | Naming { index: 2, name: "x" }
