  0x0 | 00 61 73 6d | version 65546 (Component)
      | 0a 00 01 00
  0x8 | 07 17       | component type section
  0xa | 02          | 2 count
  0xb | 42 02 01 40 | [type 0] Instance([Type(Func(ComponentFuncType { params: [], results: Named([]) })), Export { name: "", url: "", ty: Func(0) }])
      | 00 01 00 04
      | 00 00 01 00
 0x17 | 42 02 01 42 | [type 1] Instance([Type(Instance([])), Export { name: "", url: "", ty: Instance(0) }])
      | 00 04 00 00
      | 05 00      
