  0x0 | 00 61 73 6d | version 65546 (Component)
      | 0a 00 01 00
  0x8 | 07 0c       | component type section
  0xa | 01          | 1 count
  0xb | 42 02 01 40 | [type 0] Instance([Type(Func(ComponentFuncType { params: [], results: Named([]) })), Export { name: "", ty: Func(0) }])
      | 00 01 00 04
      | 00 01 00   
 0x16 | 0a 04       | component import section
 0x18 | 01          | 1 count
 0x19 | 00 05 00    | [instance 0] ComponentImport { name: "", ty: Instance(0) }
 0x1c | 00 16       | custom section
 0x1e | 0e 63 6f 6d | name: "component-name"
      | 70 6f 6e 65
      | 6e 74 2d 6e
      | 61 6d 65   
 0x2d | 01 05 03    | type section
 0x30 | 01          | 1 count
 0x31 | 00 01 69    | Naming { index: 0, name: "i" }
