  0x0 | 00 61 73 6d | version 65546 (Component)
      | 0a 00 01 00
  0x8 | 03 23       | core type section
  0xa | 01          | 1 count
  0xb | 50 05 01 60 | [core type 0] Module([Type(Func(FuncType { params: [], returns: [] })), Import(Import { module: "", name: "f", ty: Func(0) }), Import(Import { module: "", name: "g", ty: Global(GlobalType { content_type: I32, mutable: false }) }), Import(Import { module: "", name: "t", ty: Table(TableType { element_type: FuncRef, initial: 1, maximum: None }) }), Import(Import { module: "", name: "m", ty: Memory(MemoryType { memory64: false, shared: false, initial: 1, maximum: None }) })])
      | 00 00 00 00
      | 01 66 00 00
      | 00 00 01 67
      | 03 7f 00 00
      | 00 01 74 01
      | 70 00 01 00
      | 00 01 6d 02
      | 00 01      
 0x2d | 0a 05       | component import section
 0x2f | 01          | 1 count
 0x30 | 00 00 11 00 | [module 0] ComponentImport { name: "", ty: Module(0) }
 0x34 | 07 03       | component type section
 0x36 | 01          | 1 count
 0x37 | 42 00       | [type 0] Instance([])
 0x39 | 00 22       | custom section
 0x3b | 0e 63 6f 6d | name: "component-name"
      | 70 6f 6e 65
      | 6e 74 2d 6e
      | 61 6d 65   
 0x4a | 01 06 00 11 | core module section
 0x4e | 01          | 1 count
 0x4f | 00 01 6d    | Naming { index: 0, name: "m" }
 0x52 | 01 09 03    | type section
 0x55 | 01          | 1 count
 0x56 | 00 05 65 6d | Naming { index: 0, name: "empty" }
      | 70 74 79   
