  0x0 | 00 61 73 6d | version 65546 (Component)
      | 0a 00 01 00
  0x8 | 07 03       | component type section
  0xa | 01          | 1 count
  0xb | 41 00       | [type 0] Component([])
  0xd | 0a 04       | component import section
  0xf | 01          | 1 count
 0x10 | 00 04 00    | [component 0] ComponentImport { name: "", ty: Component(0) }
 0x13 | 04 08       | [component 1] inline size
   0x15 | 00 61 73 6d | version 65546 (Component)
        | 0a 00 01 00
 0x1d | 04 08       | [component 2] inline size
   0x1f | 00 61 73 6d | version 65546 (Component)
        | 0a 00 01 00
 0x27 | 04 08       | [component 3] inline size
   0x29 | 00 61 73 6d | version 65546 (Component)
        | 0a 00 01 00
 0x31 | 04 12       | [component 4] inline size
   0x33 | 00 61 73 6d | version 65546 (Component)
        | 0a 00 01 00
   0x3b | 04 08       | [component 0] inline size
     0x3d | 00 61 73 6d | version 65546 (Component)
          | 0a 00 01 00
 0x45 | 04 6a       | [component 5] inline size
   0x47 | 00 61 73 6d | version 65546 (Component)
        | 0a 00 01 00
   0x4f | 01 13       | [core module 0] inline size
     0x51 | 00 61 73 6d | version 1 (Module)
          | 01 00 00 00
     0x59 | 00 09       | custom section
     0x5b | 04 6e 61 6d | name: "name"
          | 65         
     0x60 | 00 02       | module name
     0x62 | 01 6d       | "m"
   0x64 | 07 08       | component type section
   0x66 | 01          | 1 count
   0x67 | 40 01 01 70 | [type 0] Func(ComponentFuncType { params: [("p", Primitive(String))], results: Named([]) })
        | 73 01 00   
   0x6e | 0a 04       | component import section
   0x70 | 01          | 1 count
   0x71 | 00 01 00    | [func 0] ComponentImport { name: "", ty: Func(0) }
   0x74 | 0b 06       | component export section
   0x76 | 01          | 1 count
   0x77 | 01 61 00 11 | export ComponentExport { name: "a", kind: Module, index: 0 }
        | 00         
   0x7c | 07 0d       | component type section
   0x7e | 01          | 1 count
   0x7f | 42 02 01 40 | [type 1] Instance([Type(Func(ComponentFuncType { params: [], results: Named([]) })), Export { name: "b", ty: Func(0) }])
        | 00 01 00 04
        | 01 62 01 00
   0x8b | 0a 04       | component import section
   0x8d | 01          | 1 count
   0x8e | 00 05 01    | [instance 0] ComponentImport { name: "", ty: Instance(1) }
   0x91 | 0b 05       | component export section
   0x93 | 01          | 1 count
   0x94 | 01 62 05 00 | export ComponentExport { name: "b", kind: Instance, index: 0 }
   0x98 | 00 17       | custom section
   0x9a | 0e 63 6f 6d | name: "component-name"
        | 70 6f 6e 65
        | 6e 74 2d 6e
        | 61 6d 65   
   0xa9 | 01 06 00 11 | core module section
   0xad | 01          | 1 count
   0xae | 00 01 6d    | Naming { index: 0, name: "m" }
 0xb1 | 0b 05       | component export section
 0xb3 | 01          | 1 count
 0xb4 | 01 78 04 03 | export ComponentExport { name: "x", kind: Component, index: 3 }
