0x0000 | 00 61 73 6d | version 1
       | 01 00 00 00
0x0008 | 01 04       | type section
0x000a | 01          | 1 count
0x000b | 61 00 00    | [type 0] Module(ModuleType { imports: [], exports: [] })
0x000e | 02 06       | import section
0x0010 | 01          | 1 count
0x0011 | 00 00 ff 05 | import [module 0] Import { module: "", field: None, ty: Module(0) }
       | 00         
0x0016 | 0e 7f       | module section
0x0018 | 05          | 5 count
0x0019 | 08          | inline module size
  0x001a | 00 61 73 6d | version 1
         | 01 00 00 00
0x0022 | 08          | inline module size
  0x0023 | 00 61 73 6d | version 1
         | 01 00 00 00
0x002b | 08          | inline module size
  0x002c | 00 61 73 6d | version 1
         | 01 00 00 00
0x0034 | 14          | inline module size
  0x0035 | 00 61 73 6d | version 1
         | 01 00 00 00
  0x003d | 0e 0a       | module section
  0x003f | 01          | 1 count
  0x0040 | 08          | inline module size
    0x0041 | 00 61 73 6d | version 1
           | 01 00 00 00
0x0049 | 4d          | inline module size
  0x004a | 00 61 73 6d | version 1
         | 01 00 00 00
  0x0052 | 0e 15       | module section
  0x0054 | 01          | 1 count
  0x0055 | 13          | inline module size
    0x0056 | 00 61 73 6d | version 1
           | 01 00 00 00
    0x005e | 00 09       | custom section
    0x0060 | 04 6e 61 6d | name: "name"
           | 65         
    0x0065 | 00 02       | module name
    0x0067 | 01 6d       | "m"
  0x0069 | 01 05       | type section
  0x006b | 01          | 1 count
  0x006c | 60 01 7f 00 | [type 0] Func(FuncType { params: [I32], returns: [] })
  0x0070 | 02 06       | import section
  0x0072 | 01          | 1 count
  0x0073 | 00 00 ff 00 | import [func 0] Import { module: "", field: None, ty: Function(0) }
         | 00         
  0x0078 | 01 0a       | type section
  0x007a | 02          | 2 count
  0x007b | 60 00 00    | [type 1] Func(FuncType { params: [], returns: [] })
  0x007e | 62 01 01 62 | [type 2] Instance(InstanceType { exports: [ExportType { name: "b", ty: Function(1) }] })
         | 00 01      
  0x0084 | 02 06       | import section
  0x0086 | 01          | 1 count
  0x0087 | 00 00 ff 06 | import [instance 0] Import { module: "", field: None, ty: Instance(2) }
         | 02         
  0x008c | 07 09       | export section
  0x008e | 02          | 2 count
  0x008f | 01 61 05 00 | export Export { field: "a", kind: Module, index: 0 }
  0x0093 | 01 62 06 00 | export Export { field: "b", kind: Instance, index: 0 }
0x0097 | 07 05       | export section
0x0099 | 01          | 1 count
0x009a | 01 78 05 03 | export Export { field: "x", kind: Module, index: 3 }
