0x0000 | 00 61 73 6d | version 1
       | 01 00 00 00
0x0008 | 01 08       | section Type
0x000a | 02          | 2 count
0x000b | 60 01 7f 00 | type FuncType { form: Func, params: [I32], returns: [] }
0x000f | 60 00 00    | type FuncType { form: Func, params: [], returns: [] }
0x0012 | 02 07       | section Import
0x0014 | 01          | 1 count
0x0015 | 01 6d 01 6e | import [func 0] Import { module: "m", field: "n", ty: Function(0) }
       | 00 00      
0x001b | 03 04       | section Function
0x001d | 03          | 3 count
0x001e | 01          | [func 1] type 1
0x001f | 01          | [func 2] type 1
0x0020 | 01          | [func 3] type 1
0x0021 | 04 04       | section Table
0x0023 | 01          | 1 count
0x0024 | 70 00 01    | [table 0] TableType { element_type: AnyFunc, limits: ResizableLimits { initial: 1, maximum: None } }
0x0027 | 05 03       | section Memory
0x0029 | 01          | 1 count
0x002a | 00 01       | [memory 0] MemoryType { limits: ResizableLimits { initial: 1, maximum: None }, shared: false }
0x002c | 06 06       | section Global
0x002e | 01          | 1 count
0x002f | 7f 00       | [global 0] GlobalType { content_type: I32, mutable: false }
0x0031 | 41 00       | I32Const { value: 0 }
0x0033 | 0b          | End
0x0034 | 07 05       | section Export
0x0036 | 01          | 1 count
0x0037 | 01 6d 02 00 | export Export { field: "m", kind: Memory, index: 0 }
0x003b | 08 01       | section Start
0x003d | 00          | start function 0
0x003e | 09 0f       | section Element
0x0040 | 03          | 3 count
0x0041 | 00          | element AnyFunc table[0]
0x0042 | 41 03       | I32Const { value: 3 }
0x0044 | 0b          | End
0x0045 | 01          | 1 items
0x0046 | 00          | item Func(0)
0x0047 | 01 00 01    | element AnyFunc passive, 1 items
0x004a | 00          | item Func(0)
0x004b | 03 00 01    | element AnyFunc declared 1 items
0x004e | 00          | item Func(0)
0x004f | 0a 10       | section Code
0x0051 | 03          | 3 count
============== func 1 ====================
0x0052 | 02          | size of function
0x0053 | 00          | 0 local blocks
0x0054 | 0b          | End
============== func 2 ====================
0x0055 | 04          | size of function
0x0056 | 01          | 1 local blocks
0x0057 | 01 7f       | 1 locals of type I32
0x0059 | 0b          | End
============== func 3 ====================
0x005a | 06          | size of function
0x005b | 01          | 1 local blocks
0x005c | 01 7f       | 1 locals of type I32
0x005e | 41 00       | I32Const { value: 0 }
0x0060 | 0b          | End
0x0061 | 0b 0a       | section Data
0x0063 | 02          | 2 count
0x0064 | 00          | data memory[0]
0x0065 | 41 08       | I32Const { value: 8 }
0x0067 | 0b          | End
0x0068 |-------------| ... 1 bytes of data
0x006a | 01 01       | data passive
0x006c |-------------| ... 1 bytes of data
0x006d | 00 17 0f 6e | section Custom { name: "name-of-section", kind: Unknown }
       | 61 6d 65 2d
       | 6f 66 2d 73
       | 65 63 74 69
       | 6f 6e      
0x007f |-------------| ... 7 bytes of data
