  0x0 | 00 61 73 6d | version 1 (Module)
      | 01 00 00 00
  0x8 | 01 04       | type section
  0xa | 01          | 1 count
  0xb | 60 00 00    | [type 0] Func(FuncType { params: [], returns: [] })
  0xe | 03 02       | func section
 0x10 | 01          | 1 count
 0x11 | 00          | [func 0] type 0
 0x12 | 0a 0b       | code section
 0x14 | 01          | 1 count
============== func 0 ====================
 0x15 | 09          | size of function
 0x16 | 00          | 0 local blocks
 0x17 | 06 40       | Try { ty: Empty }
 0x19 | 06 40       | Try { ty: Empty }
 0x1b | 18 00       | Delegate { relative_depth: 0 }
 0x1d | 0b          | End
 0x1e | 0b          | End
 0x1f | 00 0d       | custom section
 0x21 | 04 6e 61 6d | name: "name"
      | 65         
 0x26 | 03 06       | label names
 0x28 | 01          | 1 count
 0x29 | 00          | function 0 labels
 0x2a | 01          | 1 count
 0x2b | 00 01 6c    | Naming { index: 0, name: "l" }
